; Function Attrs: mustprogress uwtable
define noundef i32 @zmq_socket_monitor_versioned(ptr noundef %0, ptr noundef %1, i64 noundef %2, i32 noundef %3, i32 noundef %4) local_unnamed_addr #1 {
  %.not.i = icmp eq ptr %0, null
  br i1 %.not.i, label %_ZL16as_socket_base_tPv.exit.thread, label %6

6:                                                ; preds = %5
  %7 = tail call noundef zeroext i1 @_ZNK3zmq13socket_base_t9check_tagEv(ptr noundef nonnull align 8 dereferenceable(1825) %0)
  br i1 %7, label %_ZL16as_socket_base_tPv.exit, label %_ZL16as_socket_base_tPv.exit.thread

_ZL16as_socket_base_tPv.exit.thread:              ; preds = %5, %6
  %8 = tail call ptr @__errno_location() #20
  store i32 88, ptr %8, align 4, !tbaa !3
  br label %10

_ZL16as_socket_base_tPv.exit:                     ; preds = %6
  %9 = tail call noundef i32 @_ZN3zmq13socket_base_t7monitorEPKcmii(ptr noundef nonnull align 8 dereferenceable(1825) %0, ptr noundef %1, i64 noundef %2, i32 noundef %3, i32 noundef %4)
  br label %10

10:                                               ; preds = %_ZL16as_socket_base_tPv.exit.thread, %_ZL16as_socket_base_tPv.exit
  %.0 = phi i32 [ %9, %_ZL16as_socket_base_tPv.exit ], [ -1, %_ZL16as_socket_base_tPv.exit.thread ]
  ret i32 %.0
}